; Function Attrs: nofree norecurse nosync nounwind memory(argmem: readwrite) uwtable
define noundef ptr @lv_strcpy(ptr noundef returned writeonly %0, ptr nocapture noundef readonly %1) local_unnamed_addr #0 {
  br label %3

3:                                                ; preds = %3, %2
  %.04 = phi ptr [ %1, %2 ], [ %4, %3 ]
  %.0 = phi ptr [ %0, %2 ], [ %6, %3 ]
  %4 = getelementptr inbounds nuw i8, ptr %.04, i64 1
  %5 = load i8, ptr %.04, align 1, !tbaa !3
  %6 = getelementptr inbounds nuw i8, ptr %.0, i64 1
  store i8 %5, ptr %.0, align 1, !tbaa !3
  %.not = icmp eq i8 %5, 0
  br i1 %.not, label %7, label %3, !llvm.loop !23

7:                                                ; preds = %3
  ret ptr %0
}